target datalayout = "e-m:e-p270:32:32-p271:32:32-p272:64:64-i64:64-i128:128-f80:128-n8:16:32:64-S128"
target triple = "x86_64-pc-linux-gnu"

%"class.duckdb::DataChunk" = type { %"class.duckdb::vector.25", i64, i64, %"class.duckdb::vector.31" }
%"class.duckdb::vector.25" = type { %"class.std::vector.26" }
%"class.std::vector.26" = type { %"struct.std::_Vector_base.27" }
%"struct.std::_Vector_base.27" = type { %"struct.std::_Vector_base<duckdb::Vector, std::allocator<duckdb::Vector>>::_Vector_impl" }
%"struct.std::_Vector_base<duckdb::Vector, std::allocator<duckdb::Vector>>::_Vector_impl" = type { %"struct.std::_Vector_base<duckdb::Vector, std::allocator<duckdb::Vector>>::_Vector_impl_data" }
%"struct.std::_Vector_base<duckdb::Vector, std::allocator<duckdb::Vector>>::_Vector_impl_data" = type { ptr, ptr, ptr }
%"class.duckdb::vector.31" = type { %"class.std::vector.32" }
%"class.std::vector.32" = type { %"struct.std::_Vector_base.33" }
%"struct.std::_Vector_base.33" = type { %"struct.std::_Vector_base<duckdb::VectorCache, std::allocator<duckdb::VectorCache>>::_Vector_impl" }
%"struct.std::_Vector_base<duckdb::VectorCache, std::allocator<duckdb::VectorCache>>::_Vector_impl" = type { %"struct.std::_Vector_base<duckdb::VectorCache, std::allocator<duckdb::VectorCache>>::_Vector_impl_data" }
%"struct.std::_Vector_base<duckdb::VectorCache, std::allocator<duckdb::VectorCache>>::_Vector_impl_data" = type { ptr, ptr, ptr }

; Function Attrs: inlinehint mustprogress nounwind uwtable
define linkonce_odr noundef i64 @_ZNK6duckdb9DataChunk4sizeEv(ptr noundef nonnull align 8 dereferenceable(64) %0) #8 comdat align 2 {
  %2 = alloca ptr, align 8
  store ptr %0, ptr %2, align 8, !tbaa !35
  %3 = load ptr, ptr %2, align 8
  %4 = getelementptr inbounds nuw %"class.duckdb::DataChunk", ptr %3, i32 0, i32 1
  %5 = load i64, ptr %4, align 8, !tbaa !178
  ret i64 %5
}

; Function Attrs: mustprogress uwtable
define internal void @_ZN6duckdbL22MapFromEntriesFunctionERNS_9DataChunkERNS_15ExpressionStateERNS_6VectorE(ptr noundef nonnull align 8 dereferenceable(64) %0, ptr noundef nonnull align 8 dereferenceable(176) %1, ptr noundef nonnull align 8 dereferenceable(104) %2) #4 {
  %4 = alloca ptr, align 8
  %5 = alloca ptr, align 8
  %6 = alloca ptr, align 8
  %7 = alloca i64, align 8
  store ptr %0, ptr %4, align 8, !tbaa !35
  store ptr %1, ptr %5, align 8, !tbaa !37
  store ptr %2, ptr %6, align 8, !tbaa !39
  call void @llvm.lifetime.start.p0(i64 8, ptr %7) #3
  %8 = load ptr, ptr %4, align 8, !tbaa !35
  %9 = call noundef i64 @_ZNK6duckdb9DataChunk4sizeEv(ptr noundef nonnull align 8 dereferenceable(64) %8)
  store i64 %9, ptr %7, align 8, !tbaa !73
  %10 = load ptr, ptr %6, align 8, !tbaa !39
  %11 = load ptr, ptr %4, align 8, !tbaa !35
  %12 = getelementptr inbounds nuw %"class.duckdb::DataChunk", ptr %11, i32 0, i32 0
  %13 = call noundef nonnull align 8 dereferenceable(104) ptr @_ZN6duckdb6vectorINS_6VectorELb1EEixEm(ptr noundef nonnull align 8 dereferenceable(24) %12, i64 noundef 0)
  %14 = load i64, ptr %7, align 8, !tbaa !73
  call void @_ZN6duckdb7MapUtil14ReinterpretMapERNS_6VectorES2_m(ptr noundef nonnull align 8 dereferenceable(104) %10, ptr noundef nonnull align 8 dereferenceable(104) %13, i64 noundef %14)
  %15 = load ptr, ptr %6, align 8, !tbaa !39
  %16 = load i64, ptr %7, align 8, !tbaa !73
  call void @_ZN6duckdb9MapVector19MapConversionVerifyERNS_6VectorEm(ptr noundef nonnull align 8 dereferenceable(104) %15, i64 noundef %16)
  %17 = load ptr, ptr %6, align 8, !tbaa !39
  %18 = load i64, ptr %7, align 8, !tbaa !73
  call void @_ZN6duckdb6Vector6VerifyEm(ptr noundef nonnull align 8 dereferenceable(104) %17, i64 noundef %18)
  %19 = load ptr, ptr %4, align 8, !tbaa !35
  %20 = call noundef zeroext i1 @_ZNK6duckdb9DataChunk11AllConstantEv(ptr noundef nonnull align 8 dereferenceable(64) %19)
  br i1 %20, label %21, label %23

21:                                               ; preds = %3
  %22 = load ptr, ptr %6, align 8, !tbaa !39
  call void @_ZN6duckdb6Vector13SetVectorTypeENS_10VectorTypeE(ptr noundef nonnull align 8 dereferenceable(104) %22, i8 noundef zeroext 2)
  br label %23

23:                                               ; preds = %21, %3
  call void @llvm.lifetime.end.p0(i64 8, ptr %7) #3
  ret void
}