; Function Attrs: mustprogress uwtable
define internal void @_ZN6duckdbL22MapFromEntriesFunctionERNS_9DataChunkERNS_15ExpressionStateERNS_6VectorE(ptr noundef nonnull align 8 dereferenceable(64) %0, ptr nonnull readnone align 8 captures(none) %1, ptr noundef nonnull align 8 dereferenceable(104) %2) #3 {
  %4 = getelementptr inbounds nuw i8, ptr %0, i64 24
  %5 = load i64, ptr %4, align 8, !tbaa !65
  %6 = tail call noundef nonnull align 8 dereferenceable(104) ptr @_ZN6duckdb6vectorINS_6VectorELb1EEixEm(ptr noundef nonnull align 8 dereferenceable(24) %0, i64 noundef 0)
  tail call void @_ZN6duckdb7MapUtil14ReinterpretMapERNS_6VectorES2_m(ptr noundef nonnull align 8 dereferenceable(104) %2, ptr noundef nonnull align 8 dereferenceable(104) %6, i64 noundef %5)
  tail call void @_ZN6duckdb9MapVector19MapConversionVerifyERNS_6VectorEm(ptr noundef nonnull align 8 dereferenceable(104) %2, i64 noundef %5)
  tail call void @_ZN6duckdb6Vector6VerifyEm(ptr noundef nonnull align 8 dereferenceable(104) %2, i64 noundef %5)
  %7 = tail call noundef zeroext i1 @_ZNK6duckdb9DataChunk11AllConstantEv(ptr noundef nonnull align 8 dereferenceable(64) %0)
  br i1 %7, label %8, label %9

8:                                                ; preds = %3
  tail call void @_ZN6duckdb6Vector13SetVectorTypeENS_10VectorTypeE(ptr noundef nonnull align 8 dereferenceable(104) %2, i8 noundef zeroext 2)
  br label %9

9:                                                ; preds = %8, %3
  ret void
}